target datalayout = "e-m:e-p270:32:32-p271:32:32-p272:64:64-i64:64-i128:128-f80:128-n8:16:32:64-S128"
target triple = "x86_64-unknown-linux-gnu"

%"struct.std::atomic" = type { %"struct.std::__atomic_base" }
%"struct.std::__atomic_base" = type { i32 }
%"struct.absl::cord_internal::CordRep" = type { i64, %"class.absl::cord_internal::RefcountAndFlags", i8, [3 x i8] }
%"class.absl::cord_internal::RefcountAndFlags" = type { %"struct.std::atomic" }
%"class.absl::cord_internal::CordRepBtree" = type { %"struct.absl::cord_internal::CordRep", [6 x ptr] }
%"struct.absl::cord_internal::CordRepSubstring" = type { %"struct.absl::cord_internal::CordRep", i64, ptr }

; Function Attrs: mustprogress nounwind uwtable
define linkonce_odr dso_local void @_ZNSt13__atomic_baseIiEC2Ei(ptr noundef nonnull align 4 dereferenceable(4) %this, i32 noundef %__i) unnamed_addr #5 comdat align 2 {
entry:
  %this.addr = alloca ptr, align 8
  %__i.addr = alloca i32, align 4
  store ptr %this, ptr %this.addr, align 8
  store i32 %__i, ptr %__i.addr, align 4
  %this1 = load ptr, ptr %this.addr, align 8
  %_M_i = getelementptr inbounds %"struct.std::__atomic_base", ptr %this1, i32 0, i32 0
  %0 = load i32, ptr %__i.addr, align 4
  store i32 %0, ptr %_M_i, align 4
  ret void
}

; Function Attrs: mustprogress nounwind uwtable
define linkonce_odr dso_local void @_ZNSt6atomicIiEC2Ei(ptr noundef nonnull align 4 dereferenceable(4) %this, i32 noundef %__i) unnamed_addr #5 comdat align 2 {
entry:
  %this.addr = alloca ptr, align 8
  %__i.addr = alloca i32, align 4
  store ptr %this, ptr %this.addr, align 8
  store i32 %__i, ptr %__i.addr, align 4
  %this1 = load ptr, ptr %this.addr, align 8
  %0 = load i32, ptr %__i.addr, align 4
  call void @_ZNSt13__atomic_baseIiEC2Ei(ptr noundef nonnull align 4 dereferenceable(4) %this1, i32 noundef %0) #3
  ret void
}

; Function Attrs: mustprogress nounwind uwtable
define linkonce_odr dso_local void @_ZN4absl13cord_internal16RefcountAndFlagsC2Ev(ptr noundef nonnull align 4 dereferenceable(4) %this) unnamed_addr #5 comdat align 2 {
entry:
  %this.addr = alloca ptr, align 8
  store ptr %this, ptr %this.addr, align 8
  %this1 = load ptr, ptr %this.addr, align 8
  %count_ = getelementptr inbounds %"class.absl::cord_internal::RefcountAndFlags", ptr %this1, i32 0, i32 0
  call void @_ZNSt6atomicIiEC2Ei(ptr noundef nonnull align 4 dereferenceable(4) %count_, i32 noundef 2) #3
  ret void
}

; Function Attrs: mustprogress uwtable
define linkonce_odr dso_local void @_ZN4absl13cord_internal7CordRepC2Ev(ptr noundef nonnull align 8 dereferenceable(16) %this) unnamed_addr #4 comdat align 2 {
entry:
  %this.addr = alloca ptr, align 8
  store ptr %this, ptr %this.addr, align 8
  %this1 = load ptr, ptr %this.addr, align 8
  %refcount = getelementptr inbounds %"struct.absl::cord_internal::CordRep", ptr %this1, i32 0, i32 1
  call void @_ZN4absl13cord_internal16RefcountAndFlagsC2Ev(ptr noundef nonnull align 4 dereferenceable(4) %refcount)
  ret void
}

; Function Attrs: mustprogress nounwind uwtable
define linkonce_odr dso_local void @_ZN4absl13cord_internal12CordRepBtree12InitInstanceEimm(ptr noundef nonnull align 8 dereferenceable(64) %this, i32 noundef %height, i64 noundef %begin, i64 noundef %end) #5 comdat align 2 {
entry:
  %this.addr = alloca ptr, align 8
  %height.addr = alloca i32, align 4
  %begin.addr = alloca i64, align 8
  %end.addr = alloca i64, align 8
  store ptr %this, ptr %this.addr, align 8
  store i32 %height, ptr %height.addr, align 4
  store i64 %begin, ptr %begin.addr, align 8
  store i64 %end, ptr %end.addr, align 8
  %this1 = load ptr, ptr %this.addr, align 8
  %tag = getelementptr inbounds %"struct.absl::cord_internal::CordRep", ptr %this1, i32 0, i32 2
  store i8 3, ptr %tag, align 4
  %0 = load i32, ptr %height.addr, align 4
  %conv = trunc i32 %0 to i8
  %storage = getelementptr inbounds %"struct.absl::cord_internal::CordRep", ptr %this1, i32 0, i32 3
  %arrayidx = getelementptr inbounds [3 x i8], ptr %storage, i64 0, i64 0
  store i8 %conv, ptr %arrayidx, align 1
  %1 = load i64, ptr %begin.addr, align 8
  %conv2 = trunc i64 %1 to i8
  %storage3 = getelementptr inbounds %"struct.absl::cord_internal::CordRep", ptr %this1, i32 0, i32 3
  %arrayidx4 = getelementptr inbounds [3 x i8], ptr %storage3, i64 0, i64 1
  store i8 %conv2, ptr %arrayidx4, align 1
  %2 = load i64, ptr %end.addr, align 8
  %conv5 = trunc i64 %2 to i8
  %storage6 = getelementptr inbounds %"struct.absl::cord_internal::CordRep", ptr %this1, i32 0, i32 3
  %arrayidx7 = getelementptr inbounds [3 x i8], ptr %storage6, i64 0, i64 2
  store i8 %conv5, ptr %arrayidx7, align 1
  ret void
}

; Function Attrs: mustprogress nounwind uwtable
define linkonce_odr dso_local noundef i32 @_ZNK4absl13cord_internal12CordRepBtree6heightEv(ptr noundef nonnull align 8 dereferenceable(64) %this) #5 comdat align 2 {
entry:
  %this.addr = alloca ptr, align 8
  store ptr %this, ptr %this.addr, align 8
  %this1 = load ptr, ptr %this.addr, align 8
  %storage = getelementptr inbounds %"struct.absl::cord_internal::CordRep", ptr %this1, i32 0, i32 3
  %arrayidx = getelementptr inbounds [3 x i8], ptr %storage, i64 0, i64 0
  %0 = load i8, ptr %arrayidx, align 1
  %conv = zext i8 %0 to i32
  ret i32 %conv
}

; Function Attrs: mustprogress nounwind uwtable
define linkonce_odr dso_local noundef ptr @_ZN4absl13cord_internal7CordRep5btreeEv(ptr noundef nonnull align 8 dereferenceable(16) %this) #5 comdat align 2 {
entry:
  %this.addr = alloca ptr, align 8
  store ptr %this, ptr %this.addr, align 8
  %this1 = load ptr, ptr %this.addr, align 8
  ret ptr %this1
}

; Function Attrs: mustprogress nounwind uwtable
define linkonce_odr dso_local noundef zeroext i1 @_ZNK4absl13cord_internal7CordRep7IsBtreeEv(ptr noundef nonnull align 8 dereferenceable(16) %this) #5 comdat align 2 {
entry:
  %this.addr = alloca ptr, align 8
  store ptr %this, ptr %this.addr, align 8
  %this1 = load ptr, ptr %this.addr, align 8
  %tag = getelementptr inbounds %"struct.absl::cord_internal::CordRep", ptr %this1, i32 0, i32 2
  %0 = load i8, ptr %tag, align 4
  %conv = zext i8 %0 to i32
  %cmp = icmp eq i32 %conv, 3
  ret i1 %cmp
}

; Function Attrs: mustprogress uwtable
define linkonce_odr dso_local void @_ZN4absl13cord_internal12CordRepBtreeC2Ev(ptr noundef nonnull align 8 dereferenceable(64) %this) unnamed_addr #4 comdat align 2 {
entry:
  %this.addr = alloca ptr, align 8
  store ptr %this, ptr %this.addr, align 8
  %this1 = load ptr, ptr %this.addr, align 8
  call void @_ZN4absl13cord_internal7CordRepC2Ev(ptr noundef nonnull align 8 dereferenceable(16) %this1)
  ret void
}

; Function Attrs: mustprogress nounwind uwtable
define linkonce_odr dso_local noundef ptr @_ZNK4absl13cord_internal7CordRep9substringEv(ptr noundef nonnull align 8 dereferenceable(16) %this) #5 comdat align 2 {
entry:
  %this.addr = alloca ptr, align 8
  store ptr %this, ptr %this.addr, align 8
  %this1 = load ptr, ptr %this.addr, align 8
  ret ptr %this1
}

; Function Attrs: mustprogress uwtable
define linkonce_odr dso_local noundef ptr @_ZN4absl13cord_internal12CordRepBtree3NewEPNS0_7CordRepE(ptr noundef %rep) #4 comdat align 2 personality ptr @__gxx_personality_v0 {
entry:
  %rep.addr = alloca ptr, align 8
  %tree = alloca ptr, align 8
  %exn.slot = alloca ptr, align 8
  %ehselector.slot = alloca i32, align 4
  %height = alloca i32, align 4
  store ptr %rep, ptr %rep.addr, align 8
  %call = call noalias noundef nonnull ptr @_Znwm(i64 noundef 64) #21
  invoke void @_ZN4absl13cord_internal12CordRepBtreeC2Ev(ptr noundef nonnull align 8 dereferenceable(64) %call)
          to label %invoke.cont unwind label %lpad

invoke.cont:                                      ; preds = %entry
  store ptr %call, ptr %tree, align 8
  %0 = load ptr, ptr %rep.addr, align 8
  %call1 = call noundef zeroext i1 @_ZNK4absl13cord_internal7CordRep7IsBtreeEv(ptr noundef nonnull align 8 dereferenceable(16) %0)
  br i1 %call1, label %cond.true, label %cond.false

cond.true:                                        ; preds = %invoke.cont
  %1 = load ptr, ptr %rep.addr, align 8
  %call2 = call noundef ptr @_ZN4absl13cord_internal7CordRep5btreeEv(ptr noundef nonnull align 8 dereferenceable(16) %1)
  %call3 = call noundef i32 @_ZNK4absl13cord_internal12CordRepBtree6heightEv(ptr noundef nonnull align 8 dereferenceable(64) %call2)
  %add = add nsw i32 %call3, 1
  br label %cond.end

cond.false:                                       ; preds = %invoke.cont
  br label %cond.end

cond.end:                                         ; preds = %cond.false, %cond.true
  %cond = phi i32 [ %add, %cond.true ], [ 0, %cond.false ]
  store i32 %cond, ptr %height, align 4
  %2 = load ptr, ptr %rep.addr, align 8
  %length = getelementptr inbounds %"struct.absl::cord_internal::CordRep", ptr %2, i32 0, i32 0
  %3 = load i64, ptr %length, align 8
  %4 = load ptr, ptr %tree, align 8
  %length4 = getelementptr inbounds %"struct.absl::cord_internal::CordRep", ptr %4, i32 0, i32 0
  store i64 %3, ptr %length4, align 8
  %5 = load ptr, ptr %tree, align 8
  %6 = load i32, ptr %height, align 4
  call void @_ZN4absl13cord_internal12CordRepBtree12InitInstanceEimm(ptr noundef nonnull align 8 dereferenceable(64) %5, i32 noundef %6, i64 noundef 0, i64 noundef 1)
  %7 = load ptr, ptr %rep.addr, align 8
  %8 = load ptr, ptr %tree, align 8
  %edges_ = getelementptr inbounds %"class.absl::cord_internal::CordRepBtree", ptr %8, i32 0, i32 1
  %arrayidx = getelementptr inbounds [6 x ptr], ptr %edges_, i64 0, i64 0
  store ptr %7, ptr %arrayidx, align 8
  %9 = load ptr, ptr %tree, align 8
  ret ptr %9

lpad:                                             ; preds = %entry
  %10 = landingpad { ptr, i32 }
          cleanup
  %11 = extractvalue { ptr, i32 } %10, 0
  store ptr %11, ptr %exn.slot, align 8
  %12 = extractvalue { ptr, i32 } %10, 1
  store i32 %12, ptr %ehselector.slot, align 4
  call void @_ZdlPv(ptr noundef %call) #22
  br label %eh.resume

eh.resume:                                        ; preds = %lpad
  %exn = load ptr, ptr %exn.slot, align 8
  %sel = load i32, ptr %ehselector.slot, align 4
  %lpad.val = insertvalue { ptr, i32 } poison, ptr %exn, 0
  %lpad.val5 = insertvalue { ptr, i32 } %lpad.val, i32 %sel, 1
  resume { ptr, i32 } %lpad.val5
}

; Function Attrs: mustprogress uwtable
define linkonce_odr dso_local noundef zeroext i1 @_ZN4absl13cord_internal10IsDataEdgeEPKNS0_7CordRepE(ptr noundef %edge) #4 comdat {
entry:
  %retval = alloca i1, align 1
  %edge.addr = alloca ptr, align 8
  store ptr %edge, ptr %edge.addr, align 8
  %0 = load ptr, ptr %edge.addr, align 8
  %tag = getelementptr inbounds %"struct.absl::cord_internal::CordRep", ptr %0, i32 0, i32 2
  %1 = load i8, ptr %tag, align 4
  %conv = zext i8 %1 to i32
  %cmp = icmp eq i32 %conv, 5
  br i1 %cmp, label %if.then, label %lor.lhs.false

lor.lhs.false:                                    ; preds = %entry
  %2 = load ptr, ptr %edge.addr, align 8
  %tag1 = getelementptr inbounds %"struct.absl::cord_internal::CordRep", ptr %2, i32 0, i32 2
  %3 = load i8, ptr %tag1, align 4
  %conv2 = zext i8 %3 to i32
  %cmp3 = icmp sge i32 %conv2, 6
  br i1 %cmp3, label %if.then, label %if.end

if.then:                                          ; preds = %lor.lhs.false, %entry
  store i1 true, ptr %retval, align 1
  br label %return

if.end:                                           ; preds = %lor.lhs.false
  %4 = load ptr, ptr %edge.addr, align 8
  %tag4 = getelementptr inbounds %"struct.absl::cord_internal::CordRep", ptr %4, i32 0, i32 2
  %5 = load i8, ptr %tag4, align 4
  %conv5 = zext i8 %5 to i32
  %cmp6 = icmp eq i32 %conv5, 1
  br i1 %cmp6, label %if.then7, label %if.end8

if.then7:                                         ; preds = %if.end
  %6 = load ptr, ptr %edge.addr, align 8
  %call = call noundef ptr @_ZNK4absl13cord_internal7CordRep9substringEv(ptr noundef nonnull align 8 dereferenceable(16) %6)
  %child = getelementptr inbounds %"struct.absl::cord_internal::CordRepSubstring", ptr %call, i32 0, i32 2
  %7 = load ptr, ptr %child, align 8
  store ptr %7, ptr %edge.addr, align 8
  br label %if.end8

if.end8:                                          ; preds = %if.then7, %if.end
  %8 = load ptr, ptr %edge.addr, align 8
  %tag9 = getelementptr inbounds %"struct.absl::cord_internal::CordRep", ptr %8, i32 0, i32 2
  %9 = load i8, ptr %tag9, align 4
  %conv10 = zext i8 %9 to i32
  %cmp11 = icmp eq i32 %conv10, 5
  br i1 %cmp11, label %lor.end, label %lor.rhs

lor.rhs:                                          ; preds = %if.end8
  %10 = load ptr, ptr %edge.addr, align 8
  %tag12 = getelementptr inbounds %"struct.absl::cord_internal::CordRep", ptr %10, i32 0, i32 2
  %11 = load i8, ptr %tag12, align 4
  %conv13 = zext i8 %11 to i32
  %cmp14 = icmp sge i32 %conv13, 6
  br label %lor.end

lor.end:                                          ; preds = %lor.rhs, %if.end8
  %12 = phi i1 [ true, %if.end8 ], [ %cmp14, %lor.rhs ]
  store i1 %12, ptr %retval, align 1
  br label %return

return:                                           ; preds = %lor.end, %if.then
  %13 = load i1, ptr %retval, align 1
  ret i1 %13
}

; Function Attrs: mustprogress uwtable
define linkonce_odr dso_local noundef ptr @_ZN4absl13cord_internal12CordRepBtree7PrependEPS1_PNS0_7CordRepE(ptr noundef %tree, ptr noundef %rep) #4 comdat align 2 {
entry:
  %retval = alloca ptr, align 8
  %tree.addr = alloca ptr, align 8
  %rep.addr = alloca ptr, align 8
  store ptr %tree, ptr %tree.addr, align 8
  store ptr %rep, ptr %rep.addr, align 8
  %0 = load ptr, ptr %rep.addr, align 8
  %call = call noundef zeroext i1 @_ZN4absl13cord_internal10IsDataEdgeEPKNS0_7CordRepE(ptr noundef %0)
  br i1 %call, label %if.then, label %if.end

if.then:                                          ; preds = %entry
  %1 = load ptr, ptr %tree.addr, align 8
  %2 = load ptr, ptr %rep.addr, align 8
  %call1 = call noundef ptr @_ZN4absl13cord_internal12CordRepBtree10AddCordRepILNS1_8EdgeTypeE0EEEPS1_S4_PNS0_7CordRepE(ptr noundef %1, ptr noundef %2)
  store ptr %call1, ptr %retval, align 8
  br label %return

if.end:                                           ; preds = %entry
  %3 = load ptr, ptr %tree.addr, align 8
  %4 = load ptr, ptr %rep.addr, align 8
  %call2 = call noundef ptr @_ZN4absl13cord_internal12CordRepBtree11PrependSlowEPS1_PNS0_7CordRepE(ptr noundef %3, ptr noundef %4)
  store ptr %call2, ptr %retval, align 8
  br label %return

return:                                           ; preds = %if.end, %if.then
  %5 = load ptr, ptr %retval, align 8
  ret ptr %5
}

; Function Attrs: mustprogress uwtable
define linkonce_odr dso_local noundef ptr @_ZN4absl13cord_internal12CordRepBtree6AppendEPS1_PNS0_7CordRepE(ptr noundef %tree, ptr noundef %rep) #4 comdat align 2 {
entry:
  %retval = alloca ptr, align 8
  %tree.addr = alloca ptr, align 8
  %rep.addr = alloca ptr, align 8
  store ptr %tree, ptr %tree.addr, align 8
  store ptr %rep, ptr %rep.addr, align 8
  %0 = load ptr, ptr %rep.addr, align 8
  %call = call noundef zeroext i1 @_ZN4absl13cord_internal10IsDataEdgeEPKNS0_7CordRepE(ptr noundef %0)
  br i1 %call, label %if.then, label %if.end

if.then:                                          ; preds = %entry
  %1 = load ptr, ptr %tree.addr, align 8
  %2 = load ptr, ptr %rep.addr, align 8
  %call1 = call noundef ptr @_ZN4absl13cord_internal12CordRepBtree10AddCordRepILNS1_8EdgeTypeE1EEEPS1_S4_PNS0_7CordRepE(ptr noundef %1, ptr noundef %2)
  store ptr %call1, ptr %retval, align 8
  br label %return

if.end:                                           ; preds = %entry
  %3 = load ptr, ptr %tree.addr, align 8
  %4 = load ptr, ptr %rep.addr, align 8
  %call2 = call noundef ptr @_ZN4absl13cord_internal12CordRepBtree10AppendSlowEPS1_PNS0_7CordRepE(ptr noundef %3, ptr noundef %4)
  store ptr %call2, ptr %retval, align 8
  br label %return

return:                                           ; preds = %if.end, %if.then
  %5 = load ptr, ptr %retval, align 8
  ret ptr %5
}

; Function Attrs: mustprogress uwtable
define linkonce_odr dso_local noundef ptr @_ZN4absl13cord_internal12CordRepBtree6CreateEPNS0_7CordRepE(ptr noundef %rep) #4 comdat align 2 {
entry:
  %retval = alloca ptr, align 8
  %rep.addr = alloca ptr, align 8
  store ptr %rep, ptr %rep.addr, align 8
  %0 = load ptr, ptr %rep.addr, align 8
  %call = call noundef zeroext i1 @_ZN4absl13cord_internal10IsDataEdgeEPKNS0_7CordRepE(ptr noundef %0)
  br i1 %call, label %if.then, label %if.end

if.then:                                          ; preds = %entry
  %1 = load ptr, ptr %rep.addr, align 8
  %call1 = call noundef ptr @_ZN4absl13cord_internal12CordRepBtree3NewEPNS0_7CordRepE(ptr noundef %1)
  store ptr %call1, ptr %retval, align 8
  br label %return

if.end:                                           ; preds = %entry
  %2 = load ptr, ptr %rep.addr, align 8
  %call2 = call noundef ptr @_ZN4absl13cord_internal12CordRepBtree10CreateSlowEPNS0_7CordRepE(ptr noundef %2)
  store ptr %call2, ptr %retval, align 8
  br label %return

return:                                           ; preds = %if.end, %if.then
  %3 = load ptr, ptr %retval, align 8
  ret ptr %3
}

; Function Attrs: mustprogress uwtable
define internal noundef ptr @_ZN4absl13cord_internal12_GLOBAL__N_18MakeTreeEmb(i64 noundef %size, i1 noundef zeroext %append) #4 {
entry:
  %size.addr = alloca i64, align 8
  %append.addr = alloca i8, align 1
  %tree = alloca ptr, align 8
  %i = alloca i64, align 8
  store i64 %size, ptr %size.addr, align 8
  %frombool = zext i1 %append to i8
  store i8 %frombool, ptr %append.addr, align 1
  %call = call noundef ptr @_ZN4absl13cord_internal12_GLOBAL__N_111MakeHexFlatEm(i64 noundef 0)
  %call1 = call noundef ptr @_ZN4absl13cord_internal12CordRepBtree6CreateEPNS0_7CordRepE(ptr noundef %call)
  store ptr %call1, ptr %tree, align 8
  store i64 1, ptr %i, align 8
  br label %for.cond

for.cond:                                         ; preds = %for.inc, %entry
  %0 = load i64, ptr %i, align 8
  %1 = load i64, ptr %size.addr, align 8
  %cmp = icmp ult i64 %0, %1
  br i1 %cmp, label %for.body, label %for.end

for.body:                                         ; preds = %for.cond
  %2 = load i8, ptr %append.addr, align 1
  %tobool = trunc i8 %2 to i1
  br i1 %tobool, label %cond.true, label %cond.false

cond.true:                                        ; preds = %for.body
  %3 = load ptr, ptr %tree, align 8
  %4 = load i64, ptr %i, align 8
  %call2 = call noundef ptr @_ZN4absl13cord_internal12_GLOBAL__N_111MakeHexFlatEm(i64 noundef %4)
  %call3 = call noundef ptr @_ZN4absl13cord_internal12CordRepBtree6AppendEPS1_PNS0_7CordRepE(ptr noundef %3, ptr noundef %call2)
  br label %cond.end

cond.false:                                       ; preds = %for.body
  %5 = load ptr, ptr %tree, align 8
  %6 = load i64, ptr %i, align 8
  %call4 = call noundef ptr @_ZN4absl13cord_internal12_GLOBAL__N_111MakeHexFlatEm(i64 noundef %6)
  %call5 = call noundef ptr @_ZN4absl13cord_internal12CordRepBtree7PrependEPS1_PNS0_7CordRepE(ptr noundef %5, ptr noundef %call4)
  br label %cond.end

cond.end:                                         ; preds = %cond.false, %cond.true
  %cond = phi ptr [ %call3, %cond.true ], [ %call5, %cond.false ]
  store ptr %cond, ptr %tree, align 8
  br label %for.inc

for.inc:                                          ; preds = %cond.end
  %7 = load i64, ptr %i, align 8
  %inc = add i64 %7, 1
  store i64 %inc, ptr %i, align 8
  br label %for.cond, !llvm.loop !46

for.end:                                          ; preds = %for.cond
  %8 = load ptr, ptr %tree, align 8
  ret ptr %8
}