; Function Attrs: mustprogress uwtable
define internal fastcc noundef ptr @_ZN4absl13cord_internal12_GLOBAL__N_18MakeTreeEmb(i64 noundef %size, i1 noundef zeroext %append) unnamed_addr #3 personality ptr @__gxx_personality_v0 {
entry:
  %call = tail call fastcc noundef ptr @_ZN4absl13cord_internal12_GLOBAL__N_111MakeHexFlatEm(i64 noundef 0)
  %tag.i.i = getelementptr inbounds i8, ptr %call, i64 12
  %0 = load i8, ptr %tag.i.i, align 4
  %or.cond.i.i = icmp ugt i8 %0, 4
  br i1 %or.cond.i.i, label %_ZN4absl13cord_internal12CordRepBtree3NewEPNS0_7CordRepE.exit.i, label %if.end.i.i

if.end.i.i:                                       ; preds = %entry
  %cmp6.i.i = icmp eq i8 %0, 1
  br i1 %cmp6.i.i, label %_ZN4absl13cord_internal10IsDataEdgeEPKNS0_7CordRepE.exit.i, label %if.end.i

_ZN4absl13cord_internal10IsDataEdgeEPKNS0_7CordRepE.exit.i: ; preds = %if.end.i.i
  %child.i.i = getelementptr inbounds i8, ptr %call, i64 24
  %1 = load ptr, ptr %child.i.i, align 8
  %tag9.phi.trans.insert.i.i = getelementptr inbounds i8, ptr %1, i64 12
  %.pre.i.i = load i8, ptr %tag9.phi.trans.insert.i.i, align 4
  %2 = icmp ugt i8 %.pre.i.i, 4
  br i1 %2, label %_ZN4absl13cord_internal12CordRepBtree3NewEPNS0_7CordRepE.exit.i, label %if.end.i

_ZN4absl13cord_internal12CordRepBtree3NewEPNS0_7CordRepE.exit.i: ; preds = %_ZN4absl13cord_internal10IsDataEdgeEPKNS0_7CordRepE.exit.i, %entry
  %call.i.i = tail call noalias noundef nonnull dereferenceable(64) ptr @_Znwm(i64 noundef 64) #30
  %refcount.i.i.i.i = getelementptr inbounds i8, ptr %call.i.i, i64 8
  store i32 2, ptr %refcount.i.i.i.i, align 4
  %3 = load i64, ptr %call, align 8
  store i64 %3, ptr %call.i.i, align 8
  %tag.i7.i.i = getelementptr inbounds i8, ptr %call.i.i, i64 12
  store <4 x i8> <i8 3, i8 0, i8 0, i8 1>, ptr %tag.i7.i.i, align 4
  %edges_.i.i = getelementptr inbounds i8, ptr %call.i.i, i64 16
  store ptr %call, ptr %edges_.i.i, align 8
  br label %_ZN4absl13cord_internal12CordRepBtree6CreateEPNS0_7CordRepE.exit

if.end.i:                                         ; preds = %_ZN4absl13cord_internal10IsDataEdgeEPKNS0_7CordRepE.exit.i, %if.end.i.i
  %call2.i = tail call noundef ptr @_ZN4absl13cord_internal12CordRepBtree10CreateSlowEPNS0_7CordRepE(ptr noundef nonnull %call)
  br label %_ZN4absl13cord_internal12CordRepBtree6CreateEPNS0_7CordRepE.exit

_ZN4absl13cord_internal12CordRepBtree6CreateEPNS0_7CordRepE.exit: ; preds = %_ZN4absl13cord_internal12CordRepBtree3NewEPNS0_7CordRepE.exit.i, %if.end.i
  %retval.0.i = phi ptr [ %call.i.i, %_ZN4absl13cord_internal12CordRepBtree3NewEPNS0_7CordRepE.exit.i ], [ %call2.i, %if.end.i ]
  %cmp30 = icmp ugt i64 %size, 1
  br i1 %cmp30, label %for.body.lr.ph, label %for.end

for.body.lr.ph:                                   ; preds = %_ZN4absl13cord_internal12CordRepBtree6CreateEPNS0_7CordRepE.exit
  br i1 %append, label %for.body.us, label %for.body

for.body.us:                                      ; preds = %for.body.lr.ph, %cond.end.us
  %i.032.us = phi i64 [ %inc.us, %cond.end.us ], [ 1, %for.body.lr.ph ]
  %tree.031.us = phi ptr [ %cond.us, %cond.end.us ], [ %retval.0.i, %for.body.lr.ph ]
  %call2.us = tail call fastcc noundef ptr @_ZN4absl13cord_internal12_GLOBAL__N_111MakeHexFlatEm(i64 noundef %i.032.us)
  %tag.i.i6.us = getelementptr inbounds i8, ptr %call2.us, i64 12
  %4 = load i8, ptr %tag.i.i6.us, align 4
  %or.cond.i.i7.us = icmp ugt i8 %4, 4
  br i1 %or.cond.i.i7.us, label %if.then.i.us, label %if.end.i.i8.us

if.end.i.i8.us:                                   ; preds = %for.body.us
  %cmp6.i.i9.us = icmp eq i8 %4, 1
  br i1 %cmp6.i.i9.us, label %_ZN4absl13cord_internal10IsDataEdgeEPKNS0_7CordRepE.exit.i13.us, label %if.end.i10.us

_ZN4absl13cord_internal10IsDataEdgeEPKNS0_7CordRepE.exit.i13.us: ; preds = %if.end.i.i8.us
  %child.i.i14.us = getelementptr inbounds i8, ptr %call2.us, i64 24
  %5 = load ptr, ptr %child.i.i14.us, align 8
  %tag9.phi.trans.insert.i.i15.us = getelementptr inbounds i8, ptr %5, i64 12
  %.pre.i.i16.us = load i8, ptr %tag9.phi.trans.insert.i.i15.us, align 4
  %6 = icmp ugt i8 %.pre.i.i16.us, 4
  br i1 %6, label %if.then.i.us, label %if.end.i10.us

if.end.i10.us:                                    ; preds = %_ZN4absl13cord_internal10IsDataEdgeEPKNS0_7CordRepE.exit.i13.us, %if.end.i.i8.us
  %call2.i11.us = tail call noundef ptr @_ZN4absl13cord_internal12CordRepBtree10AppendSlowEPS1_PNS0_7CordRepE(ptr noundef %tree.031.us, ptr noundef nonnull %call2.us)
  br label %cond.end.us

if.then.i.us:                                     ; preds = %_ZN4absl13cord_internal10IsDataEdgeEPKNS0_7CordRepE.exit.i13.us, %for.body.us
  %call1.i.us = tail call noundef ptr @_ZN4absl13cord_internal12CordRepBtree10AddCordRepILNS1_8EdgeTypeE1EEEPS1_S4_PNS0_7CordRepE(ptr noundef %tree.031.us, ptr noundef nonnull %call2.us)
  br label %cond.end.us

cond.end.us:                                      ; preds = %if.then.i.us, %if.end.i10.us
  %cond.us = phi ptr [ %call1.i.us, %if.then.i.us ], [ %call2.i11.us, %if.end.i10.us ]
  %inc.us = add nuw i64 %i.032.us, 1
  %exitcond34.not = icmp eq i64 %inc.us, %size
  br i1 %exitcond34.not, label %for.end, label %for.body.us, !llvm.loop !671

for.body:                                         ; preds = %for.body.lr.ph, %cond.end
  %i.032 = phi i64 [ %inc, %cond.end ], [ 1, %for.body.lr.ph ]
  %tree.031 = phi ptr [ %cond, %cond.end ], [ %retval.0.i, %for.body.lr.ph ]
  %call4 = tail call fastcc noundef ptr @_ZN4absl13cord_internal12_GLOBAL__N_111MakeHexFlatEm(i64 noundef %i.032)
  %tag.i.i17 = getelementptr inbounds i8, ptr %call4, i64 12
  %7 = load i8, ptr %tag.i.i17, align 4
  %or.cond.i.i18 = icmp ugt i8 %7, 4
  br i1 %or.cond.i.i18, label %if.then.i28, label %if.end.i.i19

if.end.i.i19:                                     ; preds = %for.body
  %cmp6.i.i20 = icmp eq i8 %7, 1
  br i1 %cmp6.i.i20, label %_ZN4absl13cord_internal10IsDataEdgeEPKNS0_7CordRepE.exit.i24, label %if.end.i21

_ZN4absl13cord_internal10IsDataEdgeEPKNS0_7CordRepE.exit.i24: ; preds = %if.end.i.i19
  %child.i.i25 = getelementptr inbounds i8, ptr %call4, i64 24
  %8 = load ptr, ptr %child.i.i25, align 8
  %tag9.phi.trans.insert.i.i26 = getelementptr inbounds i8, ptr %8, i64 12
  %.pre.i.i27 = load i8, ptr %tag9.phi.trans.insert.i.i26, align 4
  %9 = icmp ugt i8 %.pre.i.i27, 4
  br i1 %9, label %if.then.i28, label %if.end.i21

if.then.i28:                                      ; preds = %_ZN4absl13cord_internal10IsDataEdgeEPKNS0_7CordRepE.exit.i24, %for.body
  %call1.i29 = tail call noundef ptr @_ZN4absl13cord_internal12CordRepBtree10AddCordRepILNS1_8EdgeTypeE0EEEPS1_S4_PNS0_7CordRepE(ptr noundef %tree.031, ptr noundef nonnull %call4)
  br label %cond.end

if.end.i21:                                       ; preds = %_ZN4absl13cord_internal10IsDataEdgeEPKNS0_7CordRepE.exit.i24, %if.end.i.i19
  %call2.i22 = tail call noundef ptr @_ZN4absl13cord_internal12CordRepBtree11PrependSlowEPS1_PNS0_7CordRepE(ptr noundef %tree.031, ptr noundef nonnull %call4)
  br label %cond.end

cond.end:                                         ; preds = %if.end.i21, %if.then.i28
  %cond = phi ptr [ %call1.i29, %if.then.i28 ], [ %call2.i22, %if.end.i21 ]
  %inc = add nuw i64 %i.032, 1
  %exitcond.not = icmp eq i64 %inc, %size
  br i1 %exitcond.not, label %for.end, label %for.body, !llvm.loop !671

for.end:                                          ; preds = %cond.end, %cond.end.us, %_ZN4absl13cord_internal12CordRepBtree6CreateEPNS0_7CordRepE.exit
  %tree.0.lcssa = phi ptr [ %retval.0.i, %_ZN4absl13cord_internal12CordRepBtree6CreateEPNS0_7CordRepE.exit ], [ %cond.us, %cond.end.us ], [ %cond, %cond.end ]
  ret ptr %tree.0.lcssa
}